; Function Attrs: nounwind uwtable
define i32 @OSSL_STORE_ctrl(ptr noundef readonly captures(none) %0, i32 noundef %1, ...) local_unnamed_addr #0 {
  %3 = alloca [2 x %struct.ossl_param_st], align 16
  %4 = alloca i32, align 4
  %5 = alloca [1 x %struct.__va_list_tag], align 16
  call void @llvm.lifetime.start.p0(i64 24, ptr nonnull %5) #9
  call void @llvm.va_start.p0(ptr nonnull %5)
  %6 = getelementptr inbounds nuw i8, ptr %0, i64 8
  %7 = load ptr, ptr %6, align 8, !tbaa !33
  %.not.i = icmp eq ptr %7, null
  br i1 %.not.i, label %34, label %8

8:                                                ; preds = %2
  %9 = getelementptr inbounds nuw i8, ptr %7, i64 160
  %10 = load ptr, ptr %9, align 8, !tbaa !18
  %.not15.i = icmp eq ptr %10, null
  br i1 %.not15.i, label %OSSL_STORE_vctrl.exit, label %11

11:                                               ; preds = %8
  call void @llvm.lifetime.start.p0(i64 80, ptr nonnull %3) #9
  call void @llvm.memset.p0.i64(ptr noundef nonnull align 16 dereferenceable(80) %3, i8 0, i64 80, i1 false)
  %cond.i = icmp eq i32 %1, 1
  br i1 %cond.i, label %12, label %29

12:                                               ; preds = %11
  call void @llvm.lifetime.start.p0(i64 4, ptr nonnull %4) #9
  %13 = load i32, ptr %5, align 16
  %14 = icmp ult i32 %13, 41
  br i1 %14, label %15, label %21

15:                                               ; preds = %12
  %16 = getelementptr inbounds nuw i8, ptr %5, i64 16
  %17 = load ptr, ptr %16, align 16
  %18 = zext nneg i32 %13 to i64
  %19 = getelementptr i8, ptr %17, i64 %18
  %20 = add nuw nsw i32 %13, 8
  store i32 %20, ptr %5, align 16
  br label %25

21:                                               ; preds = %12
  %22 = getelementptr inbounds nuw i8, ptr %5, i64 8
  %23 = load ptr, ptr %22, align 8
  %24 = getelementptr i8, ptr %23, i64 8
  store ptr %24, ptr %22, align 8
  br label %25

25:                                               ; preds = %21, %15
  %26 = phi ptr [ %19, %15 ], [ %23, %21 ]
  %27 = load ptr, ptr %26, align 8, !tbaa !41
  %28 = load i32, ptr %27, align 4, !tbaa !20
  store i32 %28, ptr %4, align 4, !tbaa !20
  call void @OSSL_PARAM_construct_int(ptr dead_on_unwind nonnull writable sret(%struct.ossl_param_st) align 8 %3, ptr noundef nonnull @.str.3, ptr noundef nonnull %4) #9
  call void @llvm.lifetime.end.p0(i64 4, ptr nonnull %4) #9
  %.pre.i = load ptr, ptr %6, align 8, !tbaa !33
  %.phi.trans.insert.i = getelementptr inbounds nuw i8, ptr %.pre.i, i64 160
  %.pre16.i = load ptr, ptr %.phi.trans.insert.i, align 8, !tbaa !18
  br label %29

29:                                               ; preds = %25, %11
  %30 = phi ptr [ %10, %11 ], [ %.pre16.i, %25 ]
  %31 = getelementptr inbounds nuw i8, ptr %0, i64 16
  %32 = load ptr, ptr %31, align 8, !tbaa !35
  %33 = call i32 %30(ptr noundef %32, ptr noundef nonnull %3) #9
  call void @llvm.lifetime.end.p0(i64 80, ptr nonnull %3) #9
  br label %OSSL_STORE_vctrl.exit

34:                                               ; preds = %2
  %35 = load ptr, ptr %0, align 8, !tbaa !34
  %36 = getelementptr inbounds nuw i8, ptr %35, i64 32
  %37 = load ptr, ptr %36, align 8, !tbaa !43
  %.not14.i = icmp eq ptr %37, null
  br i1 %.not14.i, label %OSSL_STORE_vctrl.exit, label %38

38:                                               ; preds = %34
  %39 = getelementptr inbounds nuw i8, ptr %0, i64 16
  %40 = load ptr, ptr %39, align 8, !tbaa !35
  %41 = call i32 %37(ptr noundef %40, i32 noundef %1, ptr noundef nonnull %5) #9
  br label %OSSL_STORE_vctrl.exit

OSSL_STORE_vctrl.exit:                            ; preds = %8, %29, %34, %38
  %.0.i = phi i32 [ %33, %29 ], [ %41, %38 ], [ 1, %34 ], [ 1, %8 ]
  call void @llvm.va_end.p0(ptr nonnull %5)
  call void @llvm.lifetime.end.p0(i64 24, ptr nonnull %5) #9
  ret i32 %.0.i
}